target datalayout = "e-m:e-p270:32:32-p271:32:32-p272:64:64-i64:64-i128:128-f80:128-n8:16:32:64-S128"
target triple = "x86_64-pc-linux-gnu"

%"class.QtPrivate::RefCount" = type { %class.QBasicAtomicInteger }
%class.QBasicAtomicInteger = type { %"struct.std::atomic" }
%"struct.std::atomic" = type { %"struct.std::__atomic_base" }
%"struct.std::__atomic_base" = type { i32 }
%struct.QArrayData = type { %"class.QtPrivate::RefCount", i32, i32, i64 }
%class.QByteArray = type { ptr }

; Function Attrs: mustprogress nounwind uwtable
define linkonce_odr noundef ptr @_ZN10QArrayData4dataEv(ptr noundef nonnull align 8 dereferenceable(24) %0) #4 comdat align 2 {
  %2 = alloca ptr, align 8
  store ptr %0, ptr %2, align 8
  %3 = load ptr, ptr %2, align 8
  %4 = getelementptr inbounds %struct.QArrayData, ptr %3, i32 0, i32 3
  %5 = load i64, ptr %4, align 8
  %6 = getelementptr inbounds i8, ptr %3, i64 %5
  ret ptr %6
}

; Function Attrs: mustprogress nounwind uwtable
define linkonce_odr noundef ptr @_ZN15QTypedArrayDataIcE4dataEv(ptr noundef nonnull align 8 dereferenceable(24) %0) #4 comdat align 2 {
  %2 = alloca ptr, align 8
  store ptr %0, ptr %2, align 8
  %3 = load ptr, ptr %2, align 8
  %4 = call noundef ptr @_ZN10QArrayData4dataEv(ptr noundef nonnull align 8 dereferenceable(24) %3)
  ret ptr %4
}

; Function Attrs: mustprogress uwtable
define linkonce_odr noundef ptr @_ZNK10QByteArray9constDataEv(ptr noundef nonnull align 8 dereferenceable(8) %0) #5 comdat align 2 {
  %2 = alloca ptr, align 8
  store ptr %0, ptr %2, align 8
  %3 = load ptr, ptr %2, align 8
  %4 = getelementptr inbounds %class.QByteArray, ptr %3, i32 0, i32 0
  %5 = load ptr, ptr %4, align 8
  %6 = call noundef ptr @_ZN15QTypedArrayDataIcE4dataEv(ptr noundef nonnull align 8 dereferenceable(24) %5)
  ret ptr %6
}

; Function Attrs: mustprogress uwtable
define linkonce_odr void @_ZNKR7QString6toUtf8Ev(ptr dead_on_unwind noalias writable sret(%class.QByteArray) align 8 %0, ptr noundef nonnull align 8 dereferenceable(8) %1) #5 comdat align 2 {
  %3 = alloca ptr, align 8
  %4 = alloca ptr, align 8
  store ptr %0, ptr %3, align 8
  store ptr %1, ptr %4, align 8
  %5 = load ptr, ptr %4, align 8
  call void @_ZN7QString13toUtf8_helperERKS_(ptr dead_on_unwind writable sret(%class.QByteArray) align 8 %0, ptr noundef nonnull align 8 dereferenceable(8) %5)
  ret void
}

; Function Attrs: mustprogress nounwind uwtable
define linkonce_odr noundef nonnull align 8 dereferenceable(8) ptr @_ZN9QtPrivate8asStringERK7QString(ptr noundef nonnull align 8 dereferenceable(8) %0) #4 comdat {
  %2 = alloca ptr, align 8
  store ptr %0, ptr %2, align 8
  %3 = load ptr, ptr %2, align 8
  ret ptr %3
}

; Function Attrs: mustprogress uwtable
define void @_ZN10MainWindow17updateProgressBarEiRK7QString(ptr noundef nonnull align 8 dereferenceable(1376) %0, i32 noundef %1, ptr noundef nonnull align 8 dereferenceable(8) %2) #5 align 2 personality ptr @__gxx_personality_v0 {
  %4 = alloca ptr, align 8
  %5 = alloca i32, align 4
  %6 = alloca ptr, align 8
  %7 = alloca %class.QByteArray, align 8
  %8 = alloca ptr, align 8
  %9 = alloca i32, align 4
  store ptr %0, ptr %4, align 8
  store i32 %1, ptr %5, align 4
  store ptr %2, ptr %6, align 8
  %10 = load i32, ptr %5, align 4
  %11 = load ptr, ptr %6, align 8
  %12 = call noundef nonnull align 8 dereferenceable(8) ptr @_ZN9QtPrivate8asStringERK7QString(ptr noundef nonnull align 8 dereferenceable(8) %11)
  call void @_ZNKR7QString6toUtf8Ev(ptr dead_on_unwind writable sret(%class.QByteArray) align 8 %7, ptr noundef nonnull align 8 dereferenceable(8) %12)
  %13 = invoke noundef ptr @_ZNK10QByteArray9constDataEv(ptr noundef nonnull align 8 dereferenceable(8) %7)
          to label %14 unwind label %17

14:                                               ; preds = %3
  %15 = invoke noundef zeroext i1 @_ZN10MainWindow9QCallBackEiPKc(i32 noundef %10, ptr noundef %13)
          to label %16 unwind label %17

16:                                               ; preds = %14
  call void @_ZN10QByteArrayD2Ev(ptr noundef nonnull align 8 dereferenceable(8) %7) #3
  ret void

17:                                               ; preds = %14, %3
  %18 = landingpad { ptr, i32 }
          cleanup
  %19 = extractvalue { ptr, i32 } %18, 0
  store ptr %19, ptr %8, align 8
  %20 = extractvalue { ptr, i32 } %18, 1
  store i32 %20, ptr %9, align 4
  call void @_ZN10QByteArrayD2Ev(ptr noundef nonnull align 8 dereferenceable(8) %7) #3
  br label %21

21:                                               ; preds = %17
  %22 = load ptr, ptr %8, align 8
  %23 = load i32, ptr %9, align 4
  %24 = insertvalue { ptr, i32 } poison, ptr %22, 0
  %25 = insertvalue { ptr, i32 } %24, i32 %23, 1
  resume { ptr, i32 } %25
}