; Function Attrs: mustprogress uwtable
define void @_ZN10MainWindow17updateProgressBarEiRK7QString(ptr nocapture noundef nonnull readnone align 8 dereferenceable(1376) %0, i32 noundef %1, ptr noundef nonnull align 8 dereferenceable(8) %2) local_unnamed_addr #9 align 2 personality ptr @__gxx_personality_v0 {
  %4 = alloca %class.QByteArray, align 8
  call void @_ZN7QString13toUtf8_helperERKS_(ptr dead_on_unwind nonnull writable sret(%class.QByteArray) align 8 %4, ptr noundef nonnull align 8 dereferenceable(8) %2)
  %5 = load ptr, ptr %4, align 8
  %6 = getelementptr inbounds i8, ptr %5, i64 16
  %7 = load i64, ptr %6, align 8
  %8 = getelementptr inbounds i8, ptr %5, i64 %7
  %9 = invoke noundef zeroext i1 @_ZN10MainWindow9QCallBackEiPKc(i32 noundef %1, ptr noundef nonnull %8)
          to label %10 unwind label %15

10:                                               ; preds = %3
  %11 = load ptr, ptr %4, align 8
  %12 = load atomic i32, ptr %11 monotonic, align 4
  switch i32 %12, label %_ZN9QtPrivate8RefCount5derefEv.exit.i [
    i32 0, label %_ZN9QtPrivate8RefCount5derefEv.exit.thread2.i
    i32 -1, label %_ZN10QByteArrayD2Ev.exit
  ]

_ZN9QtPrivate8RefCount5derefEv.exit.i:            ; preds = %10
  %13 = atomicrmw sub ptr %11, i32 1 seq_cst, align 4
  %.not.i = icmp eq i32 %13, 1
  br i1 %.not.i, label %_ZN9QtPrivate8RefCount5derefEv.exit._ZN9QtPrivate8RefCount5derefEv.exit.thread2_crit_edge.i, label %_ZN10QByteArrayD2Ev.exit

_ZN9QtPrivate8RefCount5derefEv.exit._ZN9QtPrivate8RefCount5derefEv.exit.thread2_crit_edge.i: ; preds = %_ZN9QtPrivate8RefCount5derefEv.exit.i
  %.pre.i = load ptr, ptr %4, align 8
  br label %_ZN9QtPrivate8RefCount5derefEv.exit.thread2.i

_ZN9QtPrivate8RefCount5derefEv.exit.thread2.i:    ; preds = %_ZN9QtPrivate8RefCount5derefEv.exit._ZN9QtPrivate8RefCount5derefEv.exit.thread2_crit_edge.i, %10
  %14 = phi ptr [ %.pre.i, %_ZN9QtPrivate8RefCount5derefEv.exit._ZN9QtPrivate8RefCount5derefEv.exit.thread2_crit_edge.i ], [ %11, %10 ]
  call void @_ZN10QArrayData10deallocateEPS_mm(ptr noundef %14, i64 noundef 1, i64 noundef 8) #26
  br label %_ZN10QByteArrayD2Ev.exit

_ZN10QByteArrayD2Ev.exit:                         ; preds = %10, %_ZN9QtPrivate8RefCount5derefEv.exit.i, %_ZN9QtPrivate8RefCount5derefEv.exit.thread2.i
  ret void

15:                                               ; preds = %3
  %16 = landingpad { ptr, i32 }
          cleanup
  call void @_ZN10QByteArrayD2Ev(ptr noundef nonnull align 8 dereferenceable(8) %4) #26
  resume { ptr, i32 } %16
}